Certificate:
    Data:
        Version: 3 (0x2)
        Serial Number:
            10:59:15:74:d1:65:34:8d:b8:b1:78:1b:b0:f1:45:d0
        Signature Algorithm: sha256WithRSAEncryption
        Issuer: CN=langbach123
        Validity
            Not Before: Apr 24 08:56:00 2024 GMT
            Not After : Jul 28 08:56:00 2026 GMT
        Subject: CN=Vu
        Subject Public Key Info:
            Public Key Algorithm: rsaEncryption
                Public-Key: (2048 bit)
                Modulus:
                    00:e0:92:0e:47:4e:7b:3a:42:c7:28:ff:c3:9a:58:
                    93:4b:bb:15:91:67:5f:0a:1b:4e:b0:4c:48:1a:ba:
                    47:12:dd:22:80:c1:51:2f:50:eb:31:a8:75:be:91:
                    c4:c6:79:2e:a0:1b:59:01:5e:cb:cb:e2:f5:f6:42:
                    aa:0e:72:5b:1f:36:92:da:ad:66:62:c4:5c:bc:f6:
                    d3:cb:60:df:43:91:40:03:a5:84:92:fe:28:74:86:
                    3c:2c:ac:cf:5e:f8:8b:ba:4a:99:de:13:17:01:6e:
                    8d:c6:97:f5:ba:56:f6:54:13:e1:70:01:7d:17:af:
                    e2:ad:ec:00:db:f3:3c:2c:be:0b:47:14:02:6d:4f:
                    bb:b3:e2:e0:c7:f9:b1:8e:77:47:15:85:d2:23:c9:
                    18:4c:b5:2a:12:45:cf:b6:db:b8:c5:2d:6a:ad:6b:
                    62:7e:ef:c6:4d:d9:a3:d8:9e:ce:d6:d6:99:fe:3f:
                    60:80:00:dd:2b:2d:e6:e6:14:68:9e:c4:70:41:a5:
                    05:69:b9:35:b8:ac:53:c8:50:8d:ed:1d:41:5b:ad:
                    83:94:f4:e9:bd:4b:e6:13:a6:16:a8:4f:74:fb:e5:
                    51:95:17:db:d0:21:4c:49:52:d4:be:9d:20:3d:01:
                    d4:85:eb:52:2b:e3:13:f8:01:16:57:92:58:e6:51:
                    77:77
                Exponent: 65537 (0x10001)
        X509v3 extensions:
            X509v3 Basic Constraints: 
                CA:FALSE
            X509v3 Subject Key Identifier: 
                BD:77:77:2A:90:47:97:DE:48:E3:1D:D0:E0:88:87:85:DB:3C:7B:F2
            X509v3 Authority Key Identifier: 
                keyid:9B:DE:15:4C:19:E0:11:AE:8E:A0:26:CE:1E:F6:61:4B:50:C1:82:3A
                DirName:/CN=langbach123
                serial:7E:9D:95:5E:D8:68:31:15:B3:26:7F:72:A8:F3:CC:ED:70:AC:DF:F1
            X509v3 Extended Key Usage: 
                TLS Web Client Authentication
            X509v3 Key Usage: 
                Digital Signature
    Signature Algorithm: sha256WithRSAEncryption
    Signature Value:
        75:83:f5:16:e9:f3:ad:c8:96:39:fd:2e:2a:84:c5:1d:84:c2:
        78:0c:bc:cf:7b:cb:cf:4b:da:b7:35:77:e3:5e:68:ca:ab:29:
        61:cb:b7:bc:ee:41:63:35:bd:39:b1:4c:1a:31:f1:7c:6e:e1:
        01:32:78:c9:8a:cb:bf:18:b9:df:3a:0b:10:c3:4c:4d:25:a9:
        37:9e:24:f8:33:0b:5a:05:81:84:f5:74:1f:cf:01:a1:e4:a3:
        91:a9:b8:3d:ae:a9:36:b8:36:f8:1c:ad:bd:13:ea:aa:3f:2b:
        78:cc:2b:1b:e1:c5:6b:07:3f:2e:b8:3c:f2:a5:66:16:00:a2:
        ba:56:34:7b:a8:ed:1e:05:ed:7c:9f:d0:83:28:37:8d:34:5c:
        00:88:74:b4:69:24:02:dd:aa:e1:8f:06:35:16:bb:bd:85:19:
        be:3b:dc:31:bf:04:10:20:e3:a0:c5:4b:06:05:7b:7f:c8:6d:
        c4:ff:94:52:c9:54:d9:4d:35:32:a5:1d:5e:32:4b:3c:64:d8:
        7b:e2:69:7c:b8:54:cf:3c:ba:57:0d:16:42:0d:38:1c:37:11:
        fc:b9:01:cb:8f:40:8f:2b:50:32:f9:f4:fb:f8:c6:f4:78:a3:
        4f:61:41:1f:7c:f2:e7:c6:97:b0:d4:ae:8d:15:63:e3:b8:98:
        84:5a:65:c4
-----BEGIN CERTIFICATE-----
MIIDUDCCAjigAwIBAgIQEFkVdNFlNI24sXgbsPFF0DANBgkqhkiG9w0BAQsFADAW
MRQwEgYDVQQDDAtsYW5nYmFjaDEyMzAeFw0yNDA0MjQwODU2MDBaFw0yNjA3Mjgw
ODU2MDBaMA0xCzAJBgNVBAMMAlZ1MIIBIjANBgkqhkiG9w0BAQEFAAOCAQ8AMIIB
CgKCAQEA4JIOR057OkLHKP/DmliTS7sVkWdfChtOsExIGrpHEt0igMFRL1DrMah1
vpHExnkuoBtZAV7Ly+L19kKqDnJbHzaS2q1mYsRcvPbTy2DfQ5FAA6WEkv4odIY8
LKzPXviLukqZ3hMXAW6Nxpf1ulb2VBPhcAF9F6/irewA2/M8LL4LRxQCbU+7s+Lg
x/mxjndHFYXSI8kYTLUqEkXPttu4xS1qrWtifu/GTdmj2J7O1taZ/j9ggADdKy3m
5hRonsRwQaUFabk1uKxTyFCN7R1BW62DlPTpvUvmE6YWqE90++VRlRfb0CFMSVLU
vp0gPQHUhetSK+MT+AEWV5JY5lF3dwIDAQABo4GiMIGfMAkGA1UdEwQCMAAwHQYD
VR0OBBYEFL13dyqQR5feSOMd0OCIh4XbPHvyMFEGA1UdIwRKMEiAFJveFUwZ4BGu
jqAmzh72YUtQwYI6oRqkGDAWMRQwEgYDVQQDDAtsYW5nYmFjaDEyM4IUfp2VXtho
MRWzJn9yqPPM7XCs3/EwEwYDVR0lBAwwCgYIKwYBBQUHAwIwCwYDVR0PBAQDAgeA
MA0GCSqGSIb3DQEBCwUAA4IBAQB1g/UW6fOtyJY5/S4qhMUdhMJ4DLzPe8vPS9q3
NXfjXmjKqylhy7e87kFjNb05sUwaMfF8buEBMnjJisu/GLnfOgsQw0xNJak3niT4
MwtaBYGE9XQfzwGh5KORqbg9rqk2uDb4HK29E+qqPyt4zCsb4cVrBz8uuDzypWYW
AKK6VjR7qO0eBe18n9CDKDeNNFwAiHS0aSQC3arhjwY1Fru9hRm+O9wxvwQQIOOg
xUsGBXt/yG3E/5RSyVTZTTUypR1eMks8ZNh74ml8uFTPPLpXDRZCDTgcNxH8uQHL
j0CPK1Ay+fT7+Mb0eKNPYUEffPLnxpew1K6NFWPjuJiEWmXE
-----END CERTIFICATE-----
